target datalayout = "e-m:e-p270:32:32-p271:32:32-p272:64:64-i64:64-i128:128-f80:128-n8:16:32:64-S128"
target triple = "x86_64-pc-linux-gnu"

%struct.XLogCtlData = type { %struct.XLogCtlInsert, %struct.XLogwrtRqst, i64, %struct.FullTransactionId, i64, i64, i64, %struct.pg_atomic_uint64, i64, i64, %struct.pg_atomic_uint64, %struct.pg_atomic_uint64, %struct.pg_atomic_uint64, i64, ptr, ptr, i32, i32, i32, i32, i8, i8, i64, i64, %struct.CheckPoint, i64, i8 }
%struct.XLogCtlInsert = type { i8, i64, i64, [128 x i8], i64, i8, i32, i64, ptr }
%struct.XLogwrtRqst = type { i64, i64 }
%struct.FullTransactionId = type { i64 }
%struct.pg_atomic_uint64 = type { i64 }
%struct.CheckPoint = type { i64, i32, i32, i8, i32, %struct.FullTransactionId, i32, i32, i32, i32, i32, i32, i32, i64, i32, i32, i32 }
%union.WALInsertLockPadded = type { %struct.WALInsertLock, [96 x i8] }
%struct.WALInsertLock = type { %struct.LWLock, %struct.pg_atomic_uint64, i64 }
%struct.LWLock = type { i16, %struct.pg_atomic_uint32, %struct.proclist_head }
%struct.pg_atomic_uint32 = type { i32 }
%struct.proclist_head = type { i32, i32 }

@XLOGbuffers = dso_local global i32 -1, align 4
@XLogCtl = internal global ptr null, align 8
@WALInsertLocks = internal global ptr null, align 8
@ControlFile = internal global ptr null, align 8
@.str.31 = private unnamed_addr constant [9 x i8] c"XLOG Ctl\00", align 1
@.str.32 = private unnamed_addr constant [13 x i8] c"Control File\00", align 1

; Function Attrs: inlinehint nounwind uwtable
define internal void @pg_atomic_init_u64_impl(ptr noundef %0, i64 noundef %1) #6 {
  %3 = alloca ptr, align 8
  %4 = alloca i64, align 8
  store ptr %0, ptr %3, align 8
  store i64 %1, ptr %4, align 8
  %5 = load i64, ptr %4, align 8
  %6 = load ptr, ptr %3, align 8
  %7 = getelementptr inbounds nuw %struct.pg_atomic_uint64, ptr %6, i32 0, i32 0
  store volatile i64 %5, ptr %7, align 8
  ret void
}

; Function Attrs: inlinehint nounwind uwtable
define internal void @pg_atomic_init_u64(ptr noundef %0, i64 noundef %1) #6 {
  %3 = alloca ptr, align 8
  %4 = alloca i64, align 8
  store ptr %0, ptr %3, align 8
  store i64 %1, ptr %4, align 8
  %5 = load ptr, ptr %3, align 8
  %6 = load i64, ptr %4, align 8
  call void @pg_atomic_init_u64_impl(ptr noundef %5, i64 noundef %6)
  ret void
}

; Function Attrs: nounwind uwtable
define dso_local void @XLOGShmemInit() #0 {
  %1 = alloca i8, align 1
  %2 = alloca i8, align 1
  %3 = alloca ptr, align 8
  %4 = alloca i32, align 4
  %5 = alloca ptr, align 8
  %6 = alloca i32, align 4
  call void @llvm.lifetime.start.p0(i64 1, ptr %1) #16
  call void @llvm.lifetime.start.p0(i64 1, ptr %2) #16
  call void @llvm.lifetime.start.p0(i64 8, ptr %3) #16
  call void @llvm.lifetime.start.p0(i64 4, ptr %4) #16
  call void @llvm.lifetime.start.p0(i64 8, ptr %5) #16
  %7 = call i64 @XLOGShmemSize()
  %8 = call ptr @ShmemInitStruct(ptr noundef @.str.31, i64 noundef %7, ptr noundef %2)
  store ptr %8, ptr @XLogCtl, align 8
  %9 = load ptr, ptr @ControlFile, align 8
  store ptr %9, ptr %5, align 8
  %10 = call ptr @ShmemInitStruct(ptr noundef @.str.32, i64 noundef 296, ptr noundef %1)
  store ptr %10, ptr @ControlFile, align 8
  %11 = load i8, ptr %1, align 1, !range !4, !noundef !5
  %12 = trunc i8 %11 to i1
  br i1 %12, label %16, label %13

13:                                               ; preds = %0
  %14 = load i8, ptr %2, align 1, !range !4, !noundef !5
  %15 = trunc i8 %14 to i1
  br i1 %15, label %16, label %26

16:                                               ; preds = %13, %0
  %17 = load ptr, ptr @XLogCtl, align 8
  %18 = getelementptr inbounds nuw %struct.XLogCtlData, ptr %17, i32 0, i32 0
  %19 = getelementptr inbounds nuw %struct.XLogCtlInsert, ptr %18, i32 0, i32 8
  %20 = load ptr, ptr %19, align 8
  store ptr %20, ptr @WALInsertLocks, align 8
  %21 = load ptr, ptr %5, align 8
  %22 = icmp ne ptr %21, null
  br i1 %22, label %23, label %25

23:                                               ; preds = %16
  %24 = load ptr, ptr %5, align 8
  call void @pfree(ptr noundef %24)
  br label %25

25:                                               ; preds = %23, %16
  store i32 1, ptr %6, align 4
  br label %138

26:                                               ; preds = %13
  %27 = load ptr, ptr @XLogCtl, align 8
  call void @llvm.memset.p0.i64(ptr align 8 %27, i8 0, i64 456, i1 false)
  %28 = load ptr, ptr %5, align 8
  %29 = icmp ne ptr %28, null
  br i1 %29, label %30, label %34

30:                                               ; preds = %26
  %31 = load ptr, ptr @ControlFile, align 8
  %32 = load ptr, ptr %5, align 8
  call void @llvm.memcpy.p0.p0.i64(ptr align 8 %31, ptr align 8 %32, i64 296, i1 false)
  %33 = load ptr, ptr %5, align 8
  call void @pfree(ptr noundef %33)
  br label %34

34:                                               ; preds = %30, %26
  %35 = load ptr, ptr @XLogCtl, align 8
  %36 = getelementptr inbounds nuw i8, ptr %35, i64 456
  store ptr %36, ptr %3, align 8
  %37 = load ptr, ptr %3, align 8
  %38 = load ptr, ptr @XLogCtl, align 8
  %39 = getelementptr inbounds nuw %struct.XLogCtlData, ptr %38, i32 0, i32 15
  store ptr %37, ptr %39, align 8
  %40 = load i32, ptr @XLOGbuffers, align 4
  %41 = sext i32 %40 to i64
  %42 = mul i64 8, %41
  %43 = load ptr, ptr %3, align 8
  %44 = getelementptr inbounds nuw i8, ptr %43, i64 %42
  store ptr %44, ptr %3, align 8
  store i32 0, ptr %4, align 4
  br label %45

45:                                               ; preds = %56, %34
  %46 = load i32, ptr %4, align 4
  %47 = load i32, ptr @XLOGbuffers, align 4
  %48 = icmp slt i32 %46, %47
  br i1 %48, label %49, label %59

49:                                               ; preds = %45
  %50 = load ptr, ptr @XLogCtl, align 8
  %51 = getelementptr inbounds nuw %struct.XLogCtlData, ptr %50, i32 0, i32 15
  %52 = load ptr, ptr %51, align 8
  %53 = load i32, ptr %4, align 4
  %54 = sext i32 %53 to i64
  %55 = getelementptr inbounds %struct.pg_atomic_uint64, ptr %52, i64 %54
  call void @pg_atomic_init_u64(ptr noundef %55, i64 noundef 0)
  br label %56

56:                                               ; preds = %49
  %57 = load i32, ptr %4, align 4
  %58 = add i32 %57, 1
  store i32 %58, ptr %4, align 4
  br label %45, !llvm.loop !56

59:                                               ; preds = %45
  %60 = load ptr, ptr %3, align 8
  %61 = ptrtoint ptr %60 to i64
  %62 = urem i64 %61, 128
  %63 = sub i64 128, %62
  %64 = load ptr, ptr %3, align 8
  %65 = getelementptr inbounds nuw i8, ptr %64, i64 %63
  store ptr %65, ptr %3, align 8
  %66 = load ptr, ptr %3, align 8
  %67 = load ptr, ptr @XLogCtl, align 8
  %68 = getelementptr inbounds nuw %struct.XLogCtlData, ptr %67, i32 0, i32 0
  %69 = getelementptr inbounds nuw %struct.XLogCtlInsert, ptr %68, i32 0, i32 8
  store ptr %66, ptr %69, align 8
  store ptr %66, ptr @WALInsertLocks, align 8
  %70 = load ptr, ptr %3, align 8
  %71 = getelementptr inbounds nuw i8, ptr %70, i64 1024
  store ptr %71, ptr %3, align 8
  store i32 0, ptr %4, align 4
  br label %72

72:                                               ; preds = %91, %59
  %73 = load i32, ptr %4, align 4
  %74 = icmp slt i32 %73, 8
  br i1 %74, label %75, label %94

75:                                               ; preds = %72
  %76 = load ptr, ptr @WALInsertLocks, align 8
  %77 = load i32, ptr %4, align 4
  %78 = sext i32 %77 to i64
  %79 = getelementptr inbounds %union.WALInsertLockPadded, ptr %76, i64 %78
  %80 = getelementptr inbounds nuw %struct.WALInsertLock, ptr %79, i32 0, i32 0
  call void @LWLockInitialize(ptr noundef %80, i32 noundef 60)
  %81 = load ptr, ptr @WALInsertLocks, align 8
  %82 = load i32, ptr %4, align 4
  %83 = sext i32 %82 to i64
  %84 = getelementptr inbounds %union.WALInsertLockPadded, ptr %81, i64 %83
  %85 = getelementptr inbounds nuw %struct.WALInsertLock, ptr %84, i32 0, i32 1
  call void @pg_atomic_init_u64(ptr noundef %85, i64 noundef 0)
  %86 = load ptr, ptr @WALInsertLocks, align 8
  %87 = load i32, ptr %4, align 4
  %88 = sext i32 %87 to i64
  %89 = getelementptr inbounds %union.WALInsertLockPadded, ptr %86, i64 %88
  %90 = getelementptr inbounds nuw %struct.WALInsertLock, ptr %89, i32 0, i32 2
  store i64 0, ptr %90, align 8
  br label %91

91:                                               ; preds = %75
  %92 = load i32, ptr %4, align 4
  %93 = add i32 %92, 1
  store i32 %93, ptr %4, align 4
  br label %72, !llvm.loop !57

94:                                               ; preds = %72
  %95 = load ptr, ptr %3, align 8
  %96 = ptrtoint ptr %95 to i64
  %97 = add i64 %96, 8191
  %98 = and i64 %97, -8192
  %99 = inttoptr i64 %98 to ptr
  store ptr %99, ptr %3, align 8
  %100 = load ptr, ptr %3, align 8
  %101 = load ptr, ptr @XLogCtl, align 8
  %102 = getelementptr inbounds nuw %struct.XLogCtlData, ptr %101, i32 0, i32 14
  store ptr %100, ptr %102, align 8
  %103 = load ptr, ptr @XLogCtl, align 8
  %104 = getelementptr inbounds nuw %struct.XLogCtlData, ptr %103, i32 0, i32 14
  %105 = load ptr, ptr %104, align 8
  %106 = load i32, ptr @XLOGbuffers, align 4
  %107 = sext i32 %106 to i64
  %108 = mul i64 8192, %107
  call void @llvm.memset.p0.i64(ptr align 1 %105, i8 0, i64 %108, i1 false)
  %109 = load i32, ptr @XLOGbuffers, align 4
  %110 = sub i32 %109, 1
  %111 = load ptr, ptr @XLogCtl, align 8
  %112 = getelementptr inbounds nuw %struct.XLogCtlData, ptr %111, i32 0, i32 16
  store i32 %110, ptr %112, align 8
  %113 = load ptr, ptr @XLogCtl, align 8
  %114 = getelementptr inbounds nuw %struct.XLogCtlData, ptr %113, i32 0, i32 19
  store i32 0, ptr %114, align 4
  %115 = load ptr, ptr @XLogCtl, align 8
  %116 = getelementptr inbounds nuw %struct.XLogCtlData, ptr %115, i32 0, i32 20
  store i8 0, ptr %116, align 8
  %117 = load ptr, ptr @XLogCtl, align 8
  %118 = getelementptr inbounds nuw %struct.XLogCtlData, ptr %117, i32 0, i32 21
  store i8 0, ptr %118, align 1
  br label %119

119:                                              ; preds = %94
  call void asm sideeffect "", "~{memory},~{dirflag},~{fpsr},~{flags}"() #16, !srcloc !58
  %120 = load ptr, ptr @XLogCtl, align 8
  %121 = getelementptr inbounds nuw %struct.XLogCtlData, ptr %120, i32 0, i32 0
  %122 = getelementptr inbounds nuw %struct.XLogCtlInsert, ptr %121, i32 0, i32 0
  store i8 0, ptr %122, align 8
  br label %123

123:                                              ; preds = %119
  br label %124

124:                                              ; preds = %123
  br label %125

125:                                              ; preds = %124
  call void asm sideeffect "", "~{memory},~{dirflag},~{fpsr},~{flags}"() #16, !srcloc !59
  %126 = load ptr, ptr @XLogCtl, align 8
  %127 = getelementptr inbounds nuw %struct.XLogCtlData, ptr %126, i32 0, i32 26
  store i8 0, ptr %127, align 8
  br label %128

128:                                              ; preds = %125
  br label %129

129:                                              ; preds = %128
  %130 = load ptr, ptr @XLogCtl, align 8
  %131 = getelementptr inbounds nuw %struct.XLogCtlData, ptr %130, i32 0, i32 10
  call void @pg_atomic_init_u64(ptr noundef %131, i64 noundef 0)
  %132 = load ptr, ptr @XLogCtl, align 8
  %133 = getelementptr inbounds nuw %struct.XLogCtlData, ptr %132, i32 0, i32 11
  call void @pg_atomic_init_u64(ptr noundef %133, i64 noundef 0)
  %134 = load ptr, ptr @XLogCtl, align 8
  %135 = getelementptr inbounds nuw %struct.XLogCtlData, ptr %134, i32 0, i32 12
  call void @pg_atomic_init_u64(ptr noundef %135, i64 noundef 0)
  %136 = load ptr, ptr @XLogCtl, align 8
  %137 = getelementptr inbounds nuw %struct.XLogCtlData, ptr %136, i32 0, i32 7
  call void @pg_atomic_init_u64(ptr noundef %137, i64 noundef 0)
  store i32 0, ptr %6, align 4
  br label %138

138:                                              ; preds = %129, %25
  call void @llvm.lifetime.end.p0(i64 8, ptr %5) #16
  call void @llvm.lifetime.end.p0(i64 4, ptr %4) #16
  call void @llvm.lifetime.end.p0(i64 8, ptr %3) #16
  call void @llvm.lifetime.end.p0(i64 1, ptr %2) #16
  call void @llvm.lifetime.end.p0(i64 1, ptr %1) #16
  %139 = load i32, ptr %6, align 4
  switch i32 %139, label %141 [
    i32 0, label %140
    i32 1, label %140
  ]

140:                                              ; preds = %138, %138
  ret void

141:                                              ; preds = %138
  unreachable
}