; Function Attrs: nounwind uwtable
define dso_local void @XLOGShmemInit() local_unnamed_addr #0 {
  %1 = alloca i8, align 1
  %2 = alloca i8, align 1
  call void @llvm.lifetime.start.p0(i64 1, ptr nonnull %1) #26
  call void @llvm.lifetime.start.p0(i64 1, ptr nonnull %2) #26
  %3 = tail call i64 @XLOGShmemSize()
  %4 = call ptr @ShmemInitStruct(ptr noundef nonnull @.str.31, i64 noundef %3, ptr noundef nonnull %2) #26
  store ptr %4, ptr @XLogCtl, align 8
  %5 = load ptr, ptr @ControlFile, align 8
  %6 = call ptr @ShmemInitStruct(ptr noundef nonnull @.str.32, i64 noundef 296, ptr noundef nonnull %1) #26
  store ptr %6, ptr @ControlFile, align 8
  %7 = load i8, ptr %1, align 1, !range !4, !noundef !5
  %8 = trunc nuw i8 %7 to i1
  br i1 %8, label %12, label %9

9:                                                ; preds = %0
  %10 = load i8, ptr %2, align 1, !range !4, !noundef !5
  %11 = trunc nuw i8 %10 to i1
  br i1 %11, label %12, label %17

12:                                               ; preds = %9, %0
  %13 = load ptr, ptr @XLogCtl, align 8
  %14 = getelementptr inbounds nuw i8, ptr %13, i64 176
  %15 = load ptr, ptr %14, align 8
  store ptr %15, ptr @WALInsertLocks, align 8
  %.not22 = icmp eq ptr %5, null
  br i1 %.not22, label %67, label %16

16:                                               ; preds = %12
  call void @pfree(ptr noundef nonnull %5) #26
  br label %67

17:                                               ; preds = %9
  %18 = load ptr, ptr @XLogCtl, align 8
  call void @llvm.memset.p0.i64(ptr noundef nonnull align 8 dereferenceable(456) %18, i8 0, i64 456, i1 false)
  %.not = icmp eq ptr %5, null
  br i1 %.not, label %20, label %19

19:                                               ; preds = %17
  call void @llvm.memcpy.p0.p0.i64(ptr noundef nonnull align 8 dereferenceable(296) %6, ptr noundef nonnull align 8 dereferenceable(296) %5, i64 296, i1 false)
  call void @pfree(ptr noundef nonnull %5) #26
  %.pre = load ptr, ptr @XLogCtl, align 8
  br label %20

20:                                               ; preds = %19, %17
  %21 = phi ptr [ %.pre, %19 ], [ %18, %17 ]
  %22 = getelementptr inbounds nuw i8, ptr %21, i64 456
  %23 = getelementptr inbounds nuw i8, ptr %21, i64 304
  store ptr %22, ptr %23, align 8
  %24 = load i32, ptr @XLOGbuffers, align 4
  %25 = sext i32 %24 to i64
  %26 = shl nsw i64 %25, 3
  %27 = getelementptr inbounds nuw i8, ptr %22, i64 %26
  %28 = icmp sgt i32 %24, 0
  br i1 %28, label %.lr.ph.preheader, label %._crit_edge

.lr.ph.preheader:                                 ; preds = %20
  %wide.trip.count = zext nneg i32 %24 to i64
  br label %.lr.ph

.lr.ph:                                           ; preds = %.lr.ph.preheader, %.lr.ph
  %indvars.iv = phi i64 [ 0, %.lr.ph.preheader ], [ %indvars.iv.next, %.lr.ph ]
  %29 = load ptr, ptr %23, align 8
  %30 = getelementptr inbounds nuw %struct.pg_atomic_uint64, ptr %29, i64 %indvars.iv
  store volatile i64 0, ptr %30, align 8
  %indvars.iv.next = add nuw nsw i64 %indvars.iv, 1
  %exitcond.not = icmp eq i64 %indvars.iv.next, %wide.trip.count
  br i1 %exitcond.not, label %._crit_edge, label %.lr.ph, !llvm.loop !58

._crit_edge:                                      ; preds = %.lr.ph, %20
  %31 = ptrtoint ptr %27 to i64
  %32 = and i64 %31, 127
  %33 = sub nuw nsw i64 128, %32
  %34 = getelementptr inbounds nuw i8, ptr %27, i64 %33
  %35 = getelementptr inbounds nuw i8, ptr %21, i64 176
  store ptr %34, ptr %35, align 8
  store ptr %34, ptr @WALInsertLocks, align 8
  br label %36

36:                                               ; preds = %._crit_edge, %36
  %37 = phi ptr [ %34, %._crit_edge ], [ %39, %36 ]
  %indvars.iv26 = phi i64 [ 0, %._crit_edge ], [ %indvars.iv.next27, %36 ]
  %38 = getelementptr inbounds nuw %union.WALInsertLockPadded, ptr %37, i64 %indvars.iv26
  call void @LWLockInitialize(ptr noundef %38, i32 noundef 60) #26
  %39 = load ptr, ptr @WALInsertLocks, align 8
  %40 = getelementptr inbounds nuw %union.WALInsertLockPadded, ptr %39, i64 %indvars.iv26, i32 0, i32 1
  store volatile i64 0, ptr %40, align 8
  %41 = getelementptr inbounds nuw %union.WALInsertLockPadded, ptr %39, i64 %indvars.iv26, i32 0, i32 2
  store i64 0, ptr %41, align 8
  %indvars.iv.next27 = add nuw nsw i64 %indvars.iv26, 1
  %exitcond29.not = icmp eq i64 %indvars.iv.next27, 8
  br i1 %exitcond29.not, label %42, label %36, !llvm.loop !59

42:                                               ; preds = %36
  %43 = getelementptr inbounds nuw i8, ptr %34, i64 1024
  %44 = ptrtoint ptr %43 to i64
  %45 = add i64 %44, 8191
  %46 = and i64 %45, -8192
  %47 = inttoptr i64 %46 to ptr
  %48 = load ptr, ptr @XLogCtl, align 8
  %49 = getelementptr inbounds nuw i8, ptr %48, i64 296
  store ptr %47, ptr %49, align 8
  %50 = load i32, ptr @XLOGbuffers, align 4
  %51 = sext i32 %50 to i64
  %52 = shl nsw i64 %51, 13
  call void @llvm.memset.p0.i64(ptr align 8192 %47, i8 0, i64 %52, i1 false)
  %53 = load i32, ptr @XLOGbuffers, align 4
  %54 = add i32 %53, -1
  %55 = load ptr, ptr @XLogCtl, align 8
  %56 = getelementptr inbounds nuw i8, ptr %55, i64 312
  store i32 %54, ptr %56, align 8
  %57 = getelementptr inbounds nuw i8, ptr %55, i64 324
  store i32 0, ptr %57, align 4
  %58 = getelementptr inbounds nuw i8, ptr %55, i64 328
  store i8 0, ptr %58, align 8
  %59 = getelementptr inbounds nuw i8, ptr %55, i64 329
  store i8 0, ptr %59, align 1
  call void asm sideeffect "", "~{memory},~{dirflag},~{fpsr},~{flags}"() #26, !srcloc !60
  %60 = load ptr, ptr @XLogCtl, align 8
  store i8 0, ptr %60, align 8
  call void asm sideeffect "", "~{memory},~{dirflag},~{fpsr},~{flags}"() #26, !srcloc !61
  %61 = load ptr, ptr @XLogCtl, align 8
  %62 = getelementptr inbounds nuw i8, ptr %61, i64 448
  store i8 0, ptr %62, align 8
  %63 = getelementptr inbounds nuw i8, ptr %61, i64 264
  store volatile i64 0, ptr %63, align 8
  %64 = getelementptr inbounds nuw i8, ptr %61, i64 272
  store volatile i64 0, ptr %64, align 8
  %65 = getelementptr inbounds nuw i8, ptr %61, i64 280
  store volatile i64 0, ptr %65, align 8
  %66 = getelementptr inbounds nuw i8, ptr %61, i64 240
  store volatile i64 0, ptr %66, align 8
  br label %67

67:                                               ; preds = %12, %16, %42
  call void @llvm.lifetime.end.p0(i64 1, ptr nonnull %2) #26
  call void @llvm.lifetime.end.p0(i64 1, ptr nonnull %1) #26
  ret void
}